; Function Attrs: mustprogress nofree norecurse nosync nounwind willreturn memory(argmem: readwrite) uwtable
define void @_ZN6icu_7514SimpleTimeZone12setStartRuleEiiiNS0_8TimeModeER10UErrorCode(ptr nocapture noundef nonnull align 8 dereferenceable(160) %this, i32 noundef %month, i32 noundef %dayOfMonth, i32 noundef %time, i32 noundef %mode, ptr nocapture noundef nonnull align 4 dereferenceable(4) %status) local_unnamed_addr #5 align 2 {
entry:
  %conv.i = trunc i32 %month to i8
  %startMonth.i = getelementptr inbounds i8, ptr %this, i64 72
  store i8 %conv.i, ptr %startMonth.i, align 8
  %conv2.i = trunc i32 %dayOfMonth to i8
  %startDay.i = getelementptr inbounds i8, ptr %this, i64 73
  store i8 %conv2.i, ptr %startDay.i, align 1
  %startDayOfWeek.i = getelementptr inbounds i8, ptr %this, i64 74
  store i8 0, ptr %startDayOfWeek.i, align 2
  %startTime.i = getelementptr inbounds i8, ptr %this, i64 76
  store i32 %time, ptr %startTime.i, align 4
  %startTimeMode.i = getelementptr inbounds i8, ptr %this, i64 80
  store i32 %mode, ptr %startTimeMode.i, align 8
  %0 = load i32, ptr %status, align 4
  %cmp.i.i.i = icmp slt i32 %0, 1
  br i1 %cmp.i.i.i, label %if.end.i.i, label %_ZN6icu_7514SimpleTimeZone12setStartRuleEiiiiNS0_8TimeModeER10UErrorCode.exit

if.end.i.i:                                       ; preds = %entry
  %cmp.not.i.i = icmp ne i8 %conv2.i, 0
  %endDay.i.i = getelementptr inbounds i8, ptr %this, i64 89
  %1 = load i8, ptr %endDay.i.i, align 1
  %cmp3.i.i = icmp ne i8 %1, 0
  %2 = select i1 %cmp.not.i.i, i1 %cmp3.i.i, i1 false
  %conv4.i.i = zext i1 %2 to i8
  %useDaylight.i.i = getelementptr inbounds i8, ptr %this, i64 104
  store i8 %conv4.i.i, ptr %useDaylight.i.i, align 8
  br i1 %2, label %land.lhs.true.i.i, label %if.end10.i.i

land.lhs.true.i.i:                                ; preds = %if.end.i.i
  %dstSavings.i.i = getelementptr inbounds i8, ptr %this, i64 116
  %3 = load i32, ptr %dstSavings.i.i, align 4
  %cmp7.i.i = icmp eq i32 %3, 0
  br i1 %cmp7.i.i, label %if.then8.i.i, label %if.then14.i.i

if.then8.i.i:                                     ; preds = %land.lhs.true.i.i
  store i32 3600000, ptr %dstSavings.i.i, align 4
  br label %if.then14.i.i

if.end10.i.i:                                     ; preds = %if.end.i.i
  br i1 %cmp.not.i.i, label %if.then14.i.i, label %_ZN6icu_7514SimpleTimeZone12setStartRuleEiiiiNS0_8TimeModeER10UErrorCode.exit

if.then14.i.i:                                    ; preds = %if.end10.i.i, %if.then8.i.i, %land.lhs.true.i.i
  %or.cond.i.i = icmp ugt i8 %conv.i, 11
  br i1 %or.cond.i.i, label %if.end91.sink.split.i.i, label %if.end21.i.i

if.end21.i.i:                                     ; preds = %if.then14.i.i
  %or.cond7.i.i = icmp ugt i32 %time, 86400000
  %or.cond8.i.i = icmp ugt i32 %mode, 2
  %or.cond10.i.i = or i1 %or.cond7.i.i, %or.cond8.i.i
  br i1 %or.cond10.i.i, label %if.end91.sink.split.i.i, label %if.end32.i.i

if.end32.i.i:                                     ; preds = %if.end21.i.i
  %startMode.i.i = getelementptr inbounds i8, ptr %this, i64 108
  store i32 1, ptr %startMode.i.i, align 4
  %cmp81.i.i = icmp slt i8 %conv2.i, 1
  br i1 %cmp81.i.i, label %if.end91.sink.split.i.i, label %lor.lhs.false82.i.i

lor.lhs.false82.i.i:                              ; preds = %if.end32.i.i
  %conv.mask.i = and i32 %month, 15
  %idxprom.i.i = zext nneg i32 %conv.mask.i to i64
  %arrayidx.i.i = getelementptr inbounds [12 x i8], ptr @_ZN6icu_7514SimpleTimeZone17STATICMONTHLENGTHE, i64 0, i64 %idxprom.i.i
  %4 = load i8, ptr %arrayidx.i.i, align 1
  %cmp87.i.i = icmp slt i8 %4, %conv2.i
  br i1 %cmp87.i.i, label %if.end91.sink.split.i.i, label %_ZN6icu_7514SimpleTimeZone12setStartRuleEiiiiNS0_8TimeModeER10UErrorCode.exit

if.end91.sink.split.i.i:                          ; preds = %lor.lhs.false82.i.i, %if.end32.i.i, %if.end21.i.i, %if.then14.i.i
  store i32 1, ptr %status, align 4
  br label %_ZN6icu_7514SimpleTimeZone12setStartRuleEiiiiNS0_8TimeModeER10UErrorCode.exit

_ZN6icu_7514SimpleTimeZone12setStartRuleEiiiiNS0_8TimeModeER10UErrorCode.exit: ; preds = %entry, %if.end10.i.i, %lor.lhs.false82.i.i, %if.end91.sink.split.i.i
  %transitionRulesInitialized.i = getelementptr inbounds i8, ptr %this, i64 120
  store i8 0, ptr %transitionRulesInitialized.i, align 8
  ret void
}